target datalayout = "e-m:e-p270:32:32-p271:32:32-p272:64:64-i64:64-i128:128-f80:128-n8:16:32:64-S128"
target triple = "x86_64-unknown-linux-gnu"

%"class.ue2::ComponentBackReference" = type <{ %"class.ue2::Component", %"class.std::__cxx11::basic_string", i32, [4 x i8] }>
%"class.ue2::Component" = type { ptr, i32, i32 }
%"class.std::__cxx11::basic_string" = type { %"struct.std::__cxx11::basic_string<char>::_Alloc_hider", i64, %union.anon }
%"struct.std::__cxx11::basic_string<char>::_Alloc_hider" = type { ptr }
%union.anon = type { i64, [8 x i8] }

@_ZTVN3ue29ComponentE = external unnamed_addr constant { [17 x ptr] }, align 8

; Function Attrs: mustprogress nounwind uwtable
define linkonce_odr hidden void @_ZN3ue29ComponentC2ERKS0_(ptr noundef nonnull align 8 dereferenceable(16) %this, ptr noundef nonnull align 8 dereferenceable(16) %other) unnamed_addr #5 comdat align 2 {
entry:
  %this.addr = alloca ptr, align 8
  %other.addr = alloca ptr, align 8
  store ptr %this, ptr %this.addr, align 8
  store ptr %other, ptr %other.addr, align 8
  %this1 = load ptr, ptr %this.addr, align 8
  store ptr getelementptr inbounds ({ [17 x ptr] }, ptr @_ZTVN3ue29ComponentE, i32 0, i32 0, i32 2), ptr %this1, align 8
  %pos_begin = getelementptr inbounds %"class.ue2::Component", ptr %this1, i32 0, i32 1
  %0 = load ptr, ptr %other.addr, align 8
  %pos_begin2 = getelementptr inbounds %"class.ue2::Component", ptr %0, i32 0, i32 1
  %1 = load i32, ptr %pos_begin2, align 8
  store i32 %1, ptr %pos_begin, align 8
  %pos_end = getelementptr inbounds %"class.ue2::Component", ptr %this1, i32 0, i32 2
  %2 = load ptr, ptr %other.addr, align 8
  %pos_end3 = getelementptr inbounds %"class.ue2::Component", ptr %2, i32 0, i32 2
  %3 = load i32, ptr %pos_end3, align 4
  store i32 %3, ptr %pos_end, align 4
  ret void
}

; Function Attrs: mustprogress uwtable
define linkonce_odr hidden void @_ZN3ue222ComponentBackReferenceC2ERKS0_(ptr noundef nonnull align 8 dereferenceable(52) %this, ptr noundef nonnull align 8 dereferenceable(52) %other) unnamed_addr #0 comdat align 2 personality ptr @__gxx_personality_v0 {
entry:
  %this.addr = alloca ptr, align 8
  %other.addr = alloca ptr, align 8
  %exn.slot = alloca ptr, align 8
  %ehselector.slot = alloca i32, align 4
  store ptr %this, ptr %this.addr, align 8
  store ptr %other, ptr %other.addr, align 8
  %this1 = load ptr, ptr %this.addr, align 8
  %0 = load ptr, ptr %other.addr, align 8
  call void @_ZN3ue29ComponentC2ERKS0_(ptr noundef nonnull align 8 dereferenceable(16) %this1, ptr noundef nonnull align 8 dereferenceable(16) %0)
  store ptr getelementptr inbounds ({ [17 x ptr] }, ptr @_ZTVN3ue222ComponentBackReferenceE, i32 0, i32 0, i32 2), ptr %this1, align 8
  %name = getelementptr inbounds %"class.ue2::ComponentBackReference", ptr %this1, i32 0, i32 1
  %1 = load ptr, ptr %other.addr, align 8
  %name2 = getelementptr inbounds %"class.ue2::ComponentBackReference", ptr %1, i32 0, i32 1
  invoke void @_ZNSt7__cxx1112basic_stringIcSt11char_traitsIcESaIcEEC1ERKS4_(ptr noundef nonnull align 8 dereferenceable(32) %name, ptr noundef nonnull align 8 dereferenceable(32) %name2)
          to label %invoke.cont unwind label %lpad

invoke.cont:                                      ; preds = %entry
  %ref_id = getelementptr inbounds %"class.ue2::ComponentBackReference", ptr %this1, i32 0, i32 2
  %2 = load ptr, ptr %other.addr, align 8
  %ref_id3 = getelementptr inbounds %"class.ue2::ComponentBackReference", ptr %2, i32 0, i32 2
  %3 = load i32, ptr %ref_id3, align 8
  store i32 %3, ptr %ref_id, align 8
  ret void

lpad:                                             ; preds = %entry
  %4 = landingpad { ptr, i32 }
          cleanup
  %5 = extractvalue { ptr, i32 } %4, 0
  store ptr %5, ptr %exn.slot, align 8
  %6 = extractvalue { ptr, i32 } %4, 1
  store i32 %6, ptr %ehselector.slot, align 4
  call void @_ZN3ue29ComponentD2Ev(ptr noundef nonnull align 8 dereferenceable(16) %this1) #7
  br label %eh.resume

eh.resume:                                        ; preds = %lpad
  %exn = load ptr, ptr %exn.slot, align 8
  %sel = load i32, ptr %ehselector.slot, align 4
  %lpad.val = insertvalue { ptr, i32 } poison, ptr %exn, 0
  %lpad.val4 = insertvalue { ptr, i32 } %lpad.val, i32 %sel, 1
  resume { ptr, i32 } %lpad.val4
}

; Function Attrs: mustprogress uwtable
define hidden noundef ptr @_ZNK3ue222ComponentBackReference5cloneEv(ptr noundef nonnull align 8 dereferenceable(52) %this) unnamed_addr #0 align 2 personality ptr @__gxx_personality_v0 {
entry:
  %this.addr = alloca ptr, align 8
  %exn.slot = alloca ptr, align 8
  %ehselector.slot = alloca i32, align 4
  store ptr %this, ptr %this.addr, align 8
  %this1 = load ptr, ptr %this.addr, align 8
  %call = call noalias noundef nonnull ptr @_Znwm(i64 noundef 56) #8
  invoke void @_ZN3ue222ComponentBackReferenceC2ERKS0_(ptr noundef nonnull align 8 dereferenceable(52) %call, ptr noundef nonnull align 8 dereferenceable(52) %this1)
          to label %invoke.cont unwind label %lpad

invoke.cont:                                      ; preds = %entry
  ret ptr %call

lpad:                                             ; preds = %entry
  %0 = landingpad { ptr, i32 }
          cleanup
  %1 = extractvalue { ptr, i32 } %0, 0
  store ptr %1, ptr %exn.slot, align 8
  %2 = extractvalue { ptr, i32 } %0, 1
  store i32 %2, ptr %ehselector.slot, align 4
  call void @_ZdlPv(ptr noundef %call) #9
  br label %eh.resume

eh.resume:                                        ; preds = %lpad
  %exn = load ptr, ptr %exn.slot, align 8
  %sel = load i32, ptr %ehselector.slot, align 4
  %lpad.val = insertvalue { ptr, i32 } poison, ptr %exn, 0
  %lpad.val2 = insertvalue { ptr, i32 } %lpad.val, i32 %sel, 1
  resume { ptr, i32 } %lpad.val2
}