; Function Attrs: mustprogress uwtable
define hidden noundef nonnull ptr @_ZNK3ue222ComponentBackReference5cloneEv(ptr noundef nonnull align 8 dereferenceable(52) %this) unnamed_addr #0 align 2 personality ptr @__gxx_personality_v0 {
entry:
  %call = tail call noalias noundef nonnull dereferenceable(56) ptr @_Znwm(i64 noundef 56) #10
  %pos_begin.i.i = getelementptr inbounds i8, ptr %call, i64 8
  %pos_begin2.i.i = getelementptr inbounds i8, ptr %this, i64 8
  %0 = load <2 x i32>, ptr %pos_begin2.i.i, align 8
  store <2 x i32> %0, ptr %pos_begin.i.i, align 8
  store ptr getelementptr inbounds ({ [17 x ptr] }, ptr @_ZTVN3ue222ComponentBackReferenceE, i64 0, i32 0, i64 2), ptr %call, align 8
  %name.i = getelementptr inbounds i8, ptr %call, i64 16
  %name2.i = getelementptr inbounds i8, ptr %this, i64 16
  invoke void @_ZNSt7__cxx1112basic_stringIcSt11char_traitsIcESaIcEEC1ERKS4_(ptr noundef nonnull align 8 dereferenceable(32) %name.i, ptr noundef nonnull align 8 dereferenceable(32) %name2.i)
          to label %invoke.cont unwind label %lpad.i

lpad.i:                                           ; preds = %entry
  %1 = landingpad { ptr, i32 }
          cleanup
  tail call void @_ZN3ue29ComponentD2Ev(ptr noundef nonnull align 8 dereferenceable(16) %call) #9
  tail call void @_ZdlPv(ptr noundef nonnull %call) #11
  resume { ptr, i32 } %1

invoke.cont:                                      ; preds = %entry
  %ref_id.i = getelementptr inbounds i8, ptr %call, i64 48
  %ref_id3.i = getelementptr inbounds i8, ptr %this, i64 48
  %2 = load i32, ptr %ref_id3.i, align 8
  store i32 %2, ptr %ref_id.i, align 8
  ret ptr %call
}